; Function Attrs: nounwind uwtable
define ptr @l_Lean_RBMap_instForInProd___rarg(ptr noundef %0, ptr noundef %1, ptr noundef %2, ptr noundef %3) #1 {
  %5 = getelementptr inbounds nuw i8, ptr %0, i64 16
  %6 = load ptr, ptr %5, align 8, !tbaa !10
  %7 = ptrtoint ptr %6 to i64
  %8 = and i64 %7, 1
  %.not = icmp eq i64 %8, 0
  br i1 %.not, label %9, label %lean_inc.exit13

9:                                                ; preds = %4
  %.val.i = load i32, ptr %6, align 4, !tbaa !4
  %10 = icmp sgt i32 %.val.i, 0
  br i1 %10, label %11, label %13, !prof !9

11:                                               ; preds = %9
  %12 = add nuw i32 %.val.i, 1
  store i32 %12, ptr %6, align 4, !tbaa !4
  br label %lean_inc.exit13

13:                                               ; preds = %9
  %.not.i = icmp eq i32 %.val.i, 0
  br i1 %.not.i, label %lean_inc.exit13, label %14

14:                                               ; preds = %13
  tail call void @lean_inc_ref_cold(ptr noundef nonnull %6) #9
  br label %lean_inc.exit13

lean_inc.exit13:                                  ; preds = %14, %13, %11, %4
  %15 = ptrtoint ptr %0 to i64
  %16 = and i64 %15, 1
  %.not17 = icmp eq i64 %16, 0
  br i1 %.not17, label %17, label %lean_inc.exit

17:                                               ; preds = %lean_inc.exit13
  %.val.i14 = load i32, ptr %0, align 4, !tbaa !4
  %18 = icmp sgt i32 %.val.i14, 0
  br i1 %18, label %19, label %21, !prof !9

19:                                               ; preds = %17
  %20 = add nuw i32 %.val.i14, 1
  store i32 %20, ptr %0, align 4, !tbaa !4
  br label %lean_inc.exit

21:                                               ; preds = %17
  %.not.i15 = icmp eq i32 %.val.i14, 0
  br i1 %.not.i15, label %lean_inc.exit, label %22

22:                                               ; preds = %21
  tail call void @lean_inc_ref_cold(ptr noundef nonnull %0) #9
  br label %lean_inc.exit

lean_inc.exit:                                    ; preds = %22, %21, %19, %lean_inc.exit13
  %23 = tail call ptr @l_Lean_RBNode_forIn_visit___at_Lean_RBMap_instForInProd___spec__1___rarg(ptr noundef nonnull %0, ptr noundef %3, ptr noundef %1, ptr noundef %2)
  tail call void @lean_inc_heartbeat() #9
  %24 = tail call noalias ptr @mi_malloc_small(i64 noundef 32) #9
  %25 = icmp eq ptr %24, null
  br i1 %25, label %26, label %lean_alloc_closure.exit

26:                                               ; preds = %lean_inc.exit
  tail call void @lean_internal_panic_out_of_memory() #10
  unreachable

lean_alloc_closure.exit:                          ; preds = %lean_inc.exit
  %27 = getelementptr inbounds nuw i8, ptr %24, i64 4
  store i32 1, ptr %24, align 4, !tbaa !4
  store i32 -184549344, ptr %27, align 4
  %28 = getelementptr inbounds nuw i8, ptr %24, i64 8
  store ptr @l_Lean_RBMap_instForInProd___rarg___lambda__1, ptr %28, align 8, !tbaa !10
  %29 = getelementptr inbounds nuw i8, ptr %24, i64 16
  store i16 2, ptr %29, align 8, !tbaa !12
  %30 = getelementptr inbounds nuw i8, ptr %24, i64 18
  store i16 1, ptr %30, align 2, !tbaa !12
  %31 = getelementptr inbounds nuw i8, ptr %24, i64 24
  store ptr %0, ptr %31, align 8, !tbaa !10
  %32 = tail call ptr @lean_apply_4(ptr noundef %6, ptr noundef nonnull inttoptr (i64 1 to ptr), ptr noundef nonnull inttoptr (i64 1 to ptr), ptr noundef %23, ptr noundef nonnull %24) #9
  ret ptr %32
}